target datalayout = "e-m:e-p270:32:32-p271:32:32-p272:64:64-i64:64-i128:128-f80:128-n8:16:32:64-S128"
target triple = "x86_64-pc-linux-gnu"

%struct.dt_iop_module_so_t = type { %struct.dt_action_t, ptr, ptr, ptr, ptr, ptr, ptr, ptr, ptr, ptr, ptr, ptr, ptr, ptr, ptr, ptr, ptr, ptr, ptr, ptr, ptr, ptr, ptr, ptr, ptr, ptr, ptr, ptr, ptr, ptr, ptr, ptr, ptr, ptr, ptr, ptr, ptr, ptr, ptr, ptr, ptr, ptr, ptr, ptr, ptr, ptr, ptr, ptr, ptr, ptr, ptr, ptr, ptr, ptr, ptr, ptr, ptr, [20 x i8], ptr, i32, ptr, i32, i32 }
%struct.dt_action_t = type { i32, ptr, ptr, ptr, ptr, ptr }

; Function Attrs: nounwind uwtable
define internal i32 @_menuitem_manage_quick_presets_sort(ptr noundef %0, ptr noundef %1) #0 {
  %3 = alloca ptr, align 8
  %4 = alloca ptr, align 8
  %5 = alloca ptr, align 8
  %6 = alloca ptr, align 8
  %7 = alloca ptr, align 8
  %8 = alloca ptr, align 8
  %9 = alloca ptr, align 8
  %10 = alloca i32, align 4
  store ptr %0, ptr %3, align 8, !tbaa !17
  store ptr %1, ptr %4, align 8, !tbaa !17
  call void @llvm.lifetime.start.p0(i64 8, ptr %5) #11
  %11 = load ptr, ptr %3, align 8, !tbaa !17
  store ptr %11, ptr %5, align 8, !tbaa !68
  call void @llvm.lifetime.start.p0(i64 8, ptr %6) #11
  %12 = load ptr, ptr %4, align 8, !tbaa !17
  store ptr %12, ptr %6, align 8, !tbaa !68
  call void @llvm.lifetime.start.p0(i64 8, ptr %7) #11
  %13 = load ptr, ptr %5, align 8, !tbaa !68
  %14 = getelementptr inbounds nuw %struct.dt_iop_module_so_t, ptr %13, i32 0, i32 5
  %15 = load ptr, ptr %14, align 8, !tbaa !200
  %16 = call ptr %15()
  %17 = call noalias ptr @g_utf8_normalize(ptr noundef %16, i64 noundef -1, i32 noundef 2)
  store ptr %17, ptr %7, align 8, !tbaa !11
  call void @llvm.lifetime.start.p0(i64 8, ptr %8) #11
  %18 = load ptr, ptr %7, align 8, !tbaa !11
  %19 = call noalias ptr @g_utf8_casefold(ptr noundef %18, i64 noundef -1)
  store ptr %19, ptr %8, align 8, !tbaa !11
  %20 = load ptr, ptr %7, align 8, !tbaa !11
  call void @g_free(ptr noundef %20)
  %21 = load ptr, ptr %6, align 8, !tbaa !68
  %22 = getelementptr inbounds nuw %struct.dt_iop_module_so_t, ptr %21, i32 0, i32 5
  %23 = load ptr, ptr %22, align 8, !tbaa !200
  %24 = call ptr %23()
  %25 = call noalias ptr @g_utf8_normalize(ptr noundef %24, i64 noundef -1, i32 noundef 2)
  store ptr %25, ptr %7, align 8, !tbaa !11
  call void @llvm.lifetime.start.p0(i64 8, ptr %9) #11
  %26 = load ptr, ptr %7, align 8, !tbaa !11
  %27 = call noalias ptr @g_utf8_casefold(ptr noundef %26, i64 noundef -1)
  store ptr %27, ptr %9, align 8, !tbaa !11
  %28 = load ptr, ptr %7, align 8, !tbaa !11
  call void @g_free(ptr noundef %28)
  call void @llvm.lifetime.start.p0(i64 4, ptr %10) #11
  %29 = load ptr, ptr %8, align 8, !tbaa !11
  %30 = load ptr, ptr %9, align 8, !tbaa !11
  %31 = call i32 @g_strcmp0(ptr noundef %29, ptr noundef %30)
  store i32 %31, ptr %10, align 4, !tbaa !13
  %32 = load ptr, ptr %8, align 8, !tbaa !11
  call void @g_free(ptr noundef %32)
  %33 = load ptr, ptr %9, align 8, !tbaa !11
  call void @g_free(ptr noundef %33)
  %34 = load i32, ptr %10, align 4, !tbaa !13
  call void @llvm.lifetime.end.p0(i64 4, ptr %10) #11
  call void @llvm.lifetime.end.p0(i64 8, ptr %9) #11
  call void @llvm.lifetime.end.p0(i64 8, ptr %8) #11
  call void @llvm.lifetime.end.p0(i64 8, ptr %7) #11
  call void @llvm.lifetime.end.p0(i64 8, ptr %6) #11
  call void @llvm.lifetime.end.p0(i64 8, ptr %5) #11
  ret i32 %34
}