; Function Attrs: nounwind uwtable
define internal i32 @_menuitem_manage_quick_presets_sort(ptr noundef readonly captures(none) %0, ptr noundef readonly captures(none) %1) #0 {
  %3 = getelementptr inbounds nuw i8, ptr %0, i64 80
  %4 = load ptr, ptr %3, align 8, !tbaa !164
  %5 = tail call ptr %4() #16
  %6 = tail call noalias ptr @g_utf8_normalize(ptr noundef %5, i64 noundef -1, i32 noundef 2) #16
  %7 = tail call noalias ptr @g_utf8_casefold(ptr noundef %6, i64 noundef -1) #16
  tail call void @g_free(ptr noundef %6) #16
  %8 = getelementptr inbounds nuw i8, ptr %1, i64 80
  %9 = load ptr, ptr %8, align 8, !tbaa !164
  %10 = tail call ptr %9() #16
  %11 = tail call noalias ptr @g_utf8_normalize(ptr noundef %10, i64 noundef -1, i32 noundef 2) #16
  %12 = tail call noalias ptr @g_utf8_casefold(ptr noundef %11, i64 noundef -1) #16
  tail call void @g_free(ptr noundef %11) #16
  %13 = tail call i32 @g_strcmp0(ptr noundef %7, ptr noundef %12) #16
  tail call void @g_free(ptr noundef %7) #16
  tail call void @g_free(ptr noundef %12) #16
  ret i32 %13
}